; Function Attrs: mustprogress nounwind uwtable
define dso_local noundef zeroext i1 @_ZN4llvm14CombinerHelper16matchCombineCopyERNS_12MachineInstrE(ptr nocapture noundef nonnull readonly align 8 dereferenceable(72) %0, ptr nocapture noundef nonnull readonly align 8 dereferenceable(70) %1) local_unnamed_addr #0 align 2 {
  %3 = getelementptr inbounds nuw i8, ptr %1, i64 68
  %4 = load i16, ptr %3, align 4
  %.not = icmp eq i16 %4, 19
  br i1 %.not, label %5, label %15

5:                                                ; preds = %2
  %6 = getelementptr inbounds nuw i8, ptr %1, i64 32
  %7 = load ptr, ptr %6, align 8
  %8 = getelementptr inbounds nuw i8, ptr %7, i64 4
  %9 = load i32, ptr %8, align 4
  %10 = getelementptr inbounds i8, ptr %7, i64 36
  %11 = load i32, ptr %10, align 4
  %12 = getelementptr inbounds nuw i8, ptr %0, i64 8
  %13 = load ptr, ptr %12, align 8
  %14 = tail call noundef zeroext i1 @_ZN4llvm13canReplaceRegENS_8RegisterES0_RNS_19MachineRegisterInfoE(i32 %9, i32 %11, ptr noundef nonnull align 8 dereferenceable(512) %13) #27
  br label %15

15:                                               ; preds = %2, %5
  %.0 = phi i1 [ %14, %5 ], [ false, %2 ]
  ret i1 %.0
}